; ModuleID = '58/946.cpp'
source_filename = "58/946.cpp"
target datalayout = "e-m:e-p270:32:32-p271:32:32-p272:64:64-i64:64-f80:128-n8:16:32:64-S128"
target triple = "x86_64-pc-linux-gnu"

%"class.std::ios_base::Init" = type { i8 }
%"class.std::basic_istream" = type { i32 (...)**, i64, %"class.std::basic_ios" }
%"class.std::basic_ios" = type { %"class.std::ios_base", %"class.std::basic_ostream"*, i8, i8, %"class.std::basic_streambuf"*, %"class.std::ctype"*, %"class.std::num_put"*, %"class.std::num_get"* }
%"class.std::ios_base" = type { i32 (...)**, i64, i64, i32, i32, i32, %"struct.std::ios_base::_Callback_list"*, %"struct.std::ios_base::_Words", [8 x %"struct.std::ios_base::_Words"], i32, %"struct.std::ios_base::_Words"*, %"class.std::locale" }
%"struct.std::ios_base::_Callback_list" = type { %"struct.std::ios_base::_Callback_list"*, void (i32, %"class.std::ios_base"*, i32)*, i32, i32 }
%"struct.std::ios_base::_Words" = type { i8*, i64 }
%"class.std::locale" = type { %"class.std::locale::_Impl"* }
%"class.std::locale::_Impl" = type { i32, %"class.std::locale::facet"**, i64, %"class.std::locale::facet"**, i8** }
%"class.std::locale::facet" = type <{ i32 (...)**, i32, [4 x i8] }>
%"class.std::basic_ostream" = type { i32 (...)**, %"class.std::basic_ios" }
%"class.std::basic_streambuf" = type { i32 (...)**, i8*, i8*, i8*, i8*, i8*, i8*, %"class.std::locale" }
%"class.std::ctype" = type <{ %"class.std::locale::facet.base", [4 x i8], %struct.__locale_struct*, i8, [7 x i8], i32*, i32*, i16*, i8, [256 x i8], [256 x i8], i8, [6 x i8] }>
%"class.std::locale::facet.base" = type <{ i32 (...)**, i32 }>
%struct.__locale_struct = type { [13 x %struct.__locale_data*], i16*, i32*, i32*, [13 x i8*] }
%struct.__locale_data = type opaque
%"class.std::num_put" = type { %"class.std::locale::facet.base", [4 x i8] }
%"class.std::num_get" = type { %"class.std::locale::facet.base", [4 x i8] }

@_ZStL8__ioinit = internal global %"class.std::ios_base::Init" zeroinitializer, align 1
@__dso_handle = external hidden global i8
@_ZSt3cin = external dso_local global %"class.std::basic_istream", align 8
@_ZSt4cout = external dso_local global %"class.std::basic_ostream", align 8
@llvm.global_ctors = appending global [1 x { i32, void ()*, i8* }] [{ i32, void ()*, i8* } { i32 65535, void ()* @_GLOBAL__sub_I_946.cpp, i8* null }]

; Function Attrs: noinline uwtable
define internal void @__cxx_global_var_init() #0 section ".text.startup" {
  call void @_ZNSt8ios_base4InitC1Ev(%"class.std::ios_base::Init"* @_ZStL8__ioinit)
  %1 = call i32 @__cxa_atexit(void (i8*)* bitcast (void (%"class.std::ios_base::Init"*)* @_ZNSt8ios_base4InitD1Ev to void (i8*)*), i8* getelementptr inbounds (%"class.std::ios_base::Init", %"class.std::ios_base::Init"* @_ZStL8__ioinit, i32 0, i32 0), i8* @__dso_handle) #3
  ret void
}

declare dso_local void @_ZNSt8ios_base4InitC1Ev(%"class.std::ios_base::Init"*) unnamed_addr #1

; Function Attrs: nounwind
declare dso_local void @_ZNSt8ios_base4InitD1Ev(%"class.std::ios_base::Init"*) unnamed_addr #2

; Function Attrs: nounwind
declare dso_local i32 @__cxa_atexit(void (i8*)*, i8*, i8*) #3

; Function Attrs: noinline norecurse uwtable
define dso_local i32 @main() #4 {
  %1 = alloca i32, align 4
  %2 = alloca i32, align 4
  %3 = alloca i8, align 1
  %4 = alloca i32, align 4
  %5 = alloca i32, align 4
  store i32 0, i32* %1, align 4
  %6 = call dereferenceable(280) %"class.std::basic_istream"* @_ZNSirsERi(%"class.std::basic_istream"* @_ZSt3cin, i32* dereferenceable(4) %2)
  %7 = call i32 @getchar()
  %8 = trunc i32 %7 to i8
  store i8 %8, i8* %3, align 1
  store i32 1, i32* %4, align 4
  store i32 1, i32* %5, align 4
  br label %9

9:                                                ; preds = %100, %0
  %10 = call i32 @getchar()
  %11 = trunc i32 %10 to i8
  store i8 %11, i8* %3, align 1
  %12 = icmp ne i8 %11, 0
  br i1 %12, label %13, label %101

13:                                               ; preds = %9
  %14 = load i8, i8* %3, align 1
  %15 = sext i8 %14 to i32
  %16 = icmp eq i32 %15, 10
  br i1 %16, label %17, label %33

17:                                               ; preds = %13
  %18 = load i32, i32* %4, align 4
  %19 = icmp ne i32 %18, 0
  br i1 %19, label %20, label %23

20:                                               ; preds = %17
  %21 = call dereferenceable(272) %"class.std::basic_ostream"* @_ZNSolsEi(%"class.std::basic_ostream"* @_ZSt4cout, i32 1)
  %22 = call dereferenceable(272) %"class.std::basic_ostream"* @_ZNSolsEPFRSoS_E(%"class.std::basic_ostream"* %21, %"class.std::basic_ostream"* (%"class.std::basic_ostream"*)* @_ZSt4endlIcSt11char_traitsIcEERSt13basic_ostreamIT_T0_ES6_)
  br label %26

23:                                               ; preds = %17
  %24 = call dereferenceable(272) %"class.std::basic_ostream"* @_ZNSolsEi(%"class.std::basic_ostream"* @_ZSt4cout, i32 0)
  %25 = call dereferenceable(272) %"class.std::basic_ostream"* @_ZNSolsEPFRSoS_E(%"class.std::basic_ostream"* %24, %"class.std::basic_ostream"* (%"class.std::basic_ostream"*)* @_ZSt4endlIcSt11char_traitsIcEERSt13basic_ostreamIT_T0_ES6_)
  br label %26

26:                                               ; preds = %23, %20
  store i32 1, i32* %4, align 4
  store i32 1, i32* %5, align 4
  %27 = load i32, i32* %2, align 4
  %28 = add nsw i32 %27, -1
  store i32 %28, i32* %2, align 4
  %29 = load i32, i32* %2, align 4
  %30 = icmp eq i32 %29, 0
  br i1 %30, label %31, label %32

31:                                               ; preds = %26
  store i32 0, i32* %1, align 4
  br label %102

32:                                               ; preds = %26
  br label %100

33:                                               ; preds = %13
  %34 = load i32, i32* %5, align 4
  %35 = icmp ne i32 %34, 0
  br i1 %35, label %36, label %61

36:                                               ; preds = %33
  %37 = load i8, i8* %3, align 1
  %38 = sext i8 %37 to i32
  %39 = icmp eq i32 %38, 95
  br i1 %39, label %58, label %40

40:                                               ; preds = %36
  %41 = load i8, i8* %3, align 1
  %42 = sext i8 %41 to i32
  %43 = icmp sge i32 %42, 97
  br i1 %43, label %44, label %48

44:                                               ; preds = %40
  %45 = load i8, i8* %3, align 1
  %46 = sext i8 %45 to i32
  %47 = icmp sle i32 %46, 122
  br i1 %47, label %58, label %48

48:                                               ; preds = %44, %40
  %49 = load i8, i8* %3, align 1
  %50 = sext i8 %49 to i32
  %51 = icmp sge i32 %50, 65
  br i1 %51, label %52, label %56

52:                                               ; preds = %48
  %53 = load i8, i8* %3, align 1
  %54 = sext i8 %53 to i32
  %55 = icmp sle i32 %54, 90
  br label %56

56:                                               ; preds = %52, %48
  %57 = phi i1 [ false, %48 ], [ %55, %52 ]
  br label %58

58:                                               ; preds = %56, %44, %36
  %59 = phi i1 [ true, %44 ], [ true, %36 ], [ %57, %56 ]
  %60 = zext i1 %59 to i32
  store i32 %60, i32* %4, align 4
  store i32 0, i32* %5, align 4
  br label %99

61:                                               ; preds = %33
  %62 = load i32, i32* %4, align 4
  %63 = icmp ne i32 %62, 0
  br i1 %63, label %64, label %96

64:                                               ; preds = %61
  %65 = load i8, i8* %3, align 1
  %66 = sext i8 %65 to i32
  %67 = icmp eq i32 %66, 95
  br i1 %67, label %94, label %68

68:                                               ; preds = %64
  %69 = load i8, i8* %3, align 1
  %70 = sext i8 %69 to i32
  %71 = icmp sge i32 %70, 97
  br i1 %71, label %72, label %76

72:                                               ; preds = %68
  %73 = load i8, i8* %3, align 1
  %74 = sext i8 %73 to i32
  %75 = icmp sle i32 %74, 122
  br i1 %75, label %94, label %76

76:                                               ; preds = %72, %68
  %77 = load i8, i8* %3, align 1
  %78 = sext i8 %77 to i32
  %79 = icmp sge i32 %78, 65
  br i1 %79, label %80, label %84

80:                                               ; preds = %76
  %81 = load i8, i8* %3, align 1
  %82 = sext i8 %81 to i32
  %83 = icmp sle i32 %82, 90
  br i1 %83, label %94, label %84

84:                                               ; preds = %80, %76
  %85 = load i8, i8* %3, align 1
  %86 = sext i8 %85 to i32
  %87 = icmp sge i32 %86, 48
  br i1 %87, label %88, label %92

88:                                               ; preds = %84
  %89 = load i8, i8* %3, align 1
  %90 = sext i8 %89 to i32
  %91 = icmp sle i32 %90, 57
  br label %92

92:                                               ; preds = %88, %84
  %93 = phi i1 [ false, %84 ], [ %91, %88 ]
  br label %94

94:                                               ; preds = %92, %80, %72, %64
  %95 = phi i1 [ true, %80 ], [ true, %72 ], [ true, %64 ], [ %93, %92 ]
  br label %96

96:                                               ; preds = %94, %61
  %97 = phi i1 [ false, %61 ], [ %95, %94 ]
  %98 = zext i1 %97 to i32
  store i32 %98, i32* %4, align 4
  br label %99

99:                                               ; preds = %96, %58
  br label %100

100:                                              ; preds = %99, %32
  br label %9

101:                                              ; preds = %9
  store i32 0, i32* %1, align 4
  br label %102

102:                                              ; preds = %101, %31
  %103 = load i32, i32* %1, align 4
  ret i32 %103
}

declare dso_local dereferenceable(280) %"class.std::basic_istream"* @_ZNSirsERi(%"class.std::basic_istream"*, i32* dereferenceable(4)) #1

declare dso_local i32 @getchar() #1

declare dso_local dereferenceable(272) %"class.std::basic_ostream"* @_ZNSolsEi(%"class.std::basic_ostream"*, i32) #1

declare dso_local dereferenceable(272) %"class.std::basic_ostream"* @_ZNSolsEPFRSoS_E(%"class.std::basic_ostream"*, %"class.std::basic_ostream"* (%"class.std::basic_ostream"*)*) #1

declare dso_local dereferenceable(272) %"class.std::basic_ostream"* @_ZSt4endlIcSt11char_traitsIcEERSt13basic_ostreamIT_T0_ES6_(%"class.std::basic_ostream"* dereferenceable(272)) #1

; Function Attrs: noinline uwtable
define internal void @_GLOBAL__sub_I_946.cpp() #0 section ".text.startup" {
  call void @__cxx_global_var_init()
  ret void
}


!llvm.module.flags = !{!0}
!llvm.ident = !{!1}

!0 = !{i32 1, !"wchar_size", i32 4}
!1 = !{!"clang version 10.0.0-4ubuntu1 "}
